; Function Attrs: nounwind uwtable
define void @Saig_ManDetectConstrFuncTest(ptr noundef %0, i32 noundef %1, i32 noundef %2, i32 noundef %3, i32 noundef %4, i32 noundef %5) local_unnamed_addr #0 {
  %.not = icmp eq i32 %4, 0
  br i1 %.not, label %9, label %7

7:                                                ; preds = %6
  %8 = tail call ptr @Saig_ManDetectConstrFunc(ptr noundef %0, i32 noundef %1, i32 noundef %2, i32 noundef %3, i32 noundef %5)
  br label %11

9:                                                ; preds = %6
  %10 = tail call ptr @Ssw_ManFindDirectImplications(ptr noundef %0, i32 noundef %1, i32 noundef %2, i32 poison, i32 noundef %5)
  br label %11

11:                                               ; preds = %9, %7
  %storemerge = phi ptr [ %10, %9 ], [ %8, %7 ]
  %12 = icmp eq ptr %storemerge, null
  br i1 %12, label %Vec_VecFreeP.exit, label %13

13:                                               ; preds = %11
  %14 = getelementptr i8, ptr %storemerge, i64 4
  %.val11.i.i = load i32, ptr %14, align 4, !tbaa !76
  %15 = icmp sgt i32 %.val11.i.i, 0
  br i1 %15, label %.lr.ph.i.i, label %.critedge.i.i

.lr.ph.i.i:                                       ; preds = %13
  %16 = getelementptr i8, ptr %storemerge, i64 8
  br label %17

17:                                               ; preds = %24, %.lr.ph.i.i
  %.val14.i.i = phi i32 [ %.val11.i.i, %.lr.ph.i.i ], [ %.val.i.i, %24 ]
  %indvars.iv.i.i = phi i64 [ 0, %.lr.ph.i.i ], [ %indvars.iv.next.i.i, %24 ]
  %.val8.i.i = load ptr, ptr %16, align 8, !tbaa !81
  %18 = getelementptr inbounds nuw ptr, ptr %.val8.i.i, i64 %indvars.iv.i.i
  %19 = load ptr, ptr %18, align 8, !tbaa !28
  %.not.i.i = icmp eq ptr %19, null
  br i1 %.not.i.i, label %24, label %20

20:                                               ; preds = %17
  %21 = getelementptr inbounds nuw i8, ptr %19, i64 8
  %22 = load ptr, ptr %21, align 8, !tbaa !40
  %.not.i.i.i = icmp eq ptr %22, null
  br i1 %.not.i.i.i, label %Vec_PtrFree.exit.i.i, label %23

23:                                               ; preds = %20
  tail call void @free(ptr noundef nonnull %22) #16
  br label %Vec_PtrFree.exit.i.i

Vec_PtrFree.exit.i.i:                             ; preds = %23, %20
  tail call void @free(ptr noundef nonnull %19) #16
  %.val.pre.i.i = load i32, ptr %14, align 4, !tbaa !76
  br label %24

24:                                               ; preds = %Vec_PtrFree.exit.i.i, %17
  %.val.i.i = phi i32 [ %.val14.i.i, %17 ], [ %.val.pre.i.i, %Vec_PtrFree.exit.i.i ]
  %indvars.iv.next.i.i = add nuw nsw i64 %indvars.iv.i.i, 1
  %25 = sext i32 %.val.i.i to i64
  %26 = icmp slt i64 %indvars.iv.next.i.i, %25
  br i1 %26, label %17, label %.critedge.i.i, !llvm.loop !137

.critedge.i.i:                                    ; preds = %24, %13
  %27 = getelementptr inbounds nuw i8, ptr %storemerge, i64 8
  %28 = load ptr, ptr %27, align 8, !tbaa !40
  %.not.i9.i.i = icmp eq ptr %28, null
  br i1 %.not.i9.i.i, label %Vec_VecFree.exit.i, label %29

29:                                               ; preds = %.critedge.i.i
  tail call void @free(ptr noundef nonnull %28) #16
  br label %Vec_VecFree.exit.i

Vec_VecFree.exit.i:                               ; preds = %29, %.critedge.i.i
  tail call void @free(ptr noundef nonnull %storemerge) #16
  br label %Vec_VecFreeP.exit

Vec_VecFreeP.exit:                                ; preds = %11, %Vec_VecFree.exit.i
  ret void
}